target datalayout = "e-m:e-p270:32:32-p271:32:32-p272:64:64-i64:64-i128:128-f80:128-n8:16:32:64-S128"
target triple = "x86_64-pc-linux-gnu"

%struct.yyguts_t = type { ptr, ptr, ptr, i64, i64, ptr, i8, i32, i32, ptr, i32, i32, i32, i32, i32, ptr, i32, ptr, i32, i32, ptr, i32, i32 }
%struct.yy_buffer_state = type { ptr, ptr, ptr, i32, i32, i32, i32, i32, i32, i32, i32, i32 }

@.str.10 = private unnamed_addr constant [32 x i8] c"flex scanner push-back overflow\00", align 1

; Function Attrs: mustprogress uwtable
define internal void @_ZL7yyunputiPcPv(i32 noundef %0, ptr noundef %1, ptr noundef %2) #0 {
  %4 = alloca i32, align 4
  %5 = alloca ptr, align 8
  %6 = alloca ptr, align 8
  %7 = alloca ptr, align 8
  %8 = alloca ptr, align 8
  %9 = alloca i32, align 4
  %10 = alloca ptr, align 8
  %11 = alloca ptr, align 8
  store i32 %0, ptr %4, align 4, !tbaa !33
  store ptr %1, ptr %5, align 8, !tbaa !30
  store ptr %2, ptr %6, align 8, !tbaa !9
  call void @llvm.lifetime.start.p0(i64 8, ptr %7) #12
  call void @llvm.lifetime.start.p0(i64 8, ptr %8) #12
  %12 = load ptr, ptr %6, align 8, !tbaa !9
  store ptr %12, ptr %8, align 8, !tbaa !10
  %13 = load ptr, ptr %8, align 8, !tbaa !10
  %14 = getelementptr inbounds nuw %struct.yyguts_t, ptr %13, i32 0, i32 9
  %15 = load ptr, ptr %14, align 8, !tbaa !29
  store ptr %15, ptr %7, align 8, !tbaa !30
  %16 = load ptr, ptr %8, align 8, !tbaa !10
  %17 = getelementptr inbounds nuw %struct.yyguts_t, ptr %16, i32 0, i32 6
  %18 = load i8, ptr %17, align 8, !tbaa !31
  %19 = load ptr, ptr %7, align 8, !tbaa !30
  store i8 %18, ptr %19, align 1, !tbaa !32
  %20 = load ptr, ptr %7, align 8, !tbaa !30
  %21 = load ptr, ptr %8, align 8, !tbaa !10
  %22 = getelementptr inbounds nuw %struct.yyguts_t, ptr %21, i32 0, i32 5
  %23 = load ptr, ptr %22, align 8, !tbaa !25
  %24 = load ptr, ptr %8, align 8, !tbaa !10
  %25 = getelementptr inbounds nuw %struct.yyguts_t, ptr %24, i32 0, i32 3
  %26 = load i64, ptr %25, align 8, !tbaa !26
  %27 = getelementptr inbounds nuw ptr, ptr %23, i64 %26
  %28 = load ptr, ptr %27, align 8, !tbaa !27
  %29 = getelementptr inbounds nuw %struct.yy_buffer_state, ptr %28, i32 0, i32 1
  %30 = load ptr, ptr %29, align 8, !tbaa !52
  %31 = getelementptr inbounds i8, ptr %30, i64 2
  %32 = icmp ult ptr %20, %31
  br i1 %32, label %33, label %149

33:                                               ; preds = %3
  call void @llvm.lifetime.start.p0(i64 4, ptr %9) #12
  %34 = load ptr, ptr %8, align 8, !tbaa !10
  %35 = getelementptr inbounds nuw %struct.yyguts_t, ptr %34, i32 0, i32 7
  %36 = load i32, ptr %35, align 4, !tbaa !50
  %37 = add nsw i32 %36, 2
  store i32 %37, ptr %9, align 4, !tbaa !33
  call void @llvm.lifetime.start.p0(i64 8, ptr %10) #12
  %38 = load ptr, ptr %8, align 8, !tbaa !10
  %39 = getelementptr inbounds nuw %struct.yyguts_t, ptr %38, i32 0, i32 5
  %40 = load ptr, ptr %39, align 8, !tbaa !25
  %41 = load ptr, ptr %8, align 8, !tbaa !10
  %42 = getelementptr inbounds nuw %struct.yyguts_t, ptr %41, i32 0, i32 3
  %43 = load i64, ptr %42, align 8, !tbaa !26
  %44 = getelementptr inbounds nuw ptr, ptr %40, i64 %43
  %45 = load ptr, ptr %44, align 8, !tbaa !27
  %46 = getelementptr inbounds nuw %struct.yy_buffer_state, ptr %45, i32 0, i32 1
  %47 = load ptr, ptr %46, align 8, !tbaa !52
  %48 = load ptr, ptr %8, align 8, !tbaa !10
  %49 = getelementptr inbounds nuw %struct.yyguts_t, ptr %48, i32 0, i32 5
  %50 = load ptr, ptr %49, align 8, !tbaa !25
  %51 = load ptr, ptr %8, align 8, !tbaa !10
  %52 = getelementptr inbounds nuw %struct.yyguts_t, ptr %51, i32 0, i32 3
  %53 = load i64, ptr %52, align 8, !tbaa !26
  %54 = getelementptr inbounds nuw ptr, ptr %50, i64 %53
  %55 = load ptr, ptr %54, align 8, !tbaa !27
  %56 = getelementptr inbounds nuw %struct.yy_buffer_state, ptr %55, i32 0, i32 3
  %57 = load i32, ptr %56, align 8, !tbaa !57
  %58 = add nsw i32 %57, 2
  %59 = sext i32 %58 to i64
  %60 = getelementptr inbounds i8, ptr %47, i64 %59
  store ptr %60, ptr %10, align 8, !tbaa !30
  call void @llvm.lifetime.start.p0(i64 8, ptr %11) #12
  %61 = load ptr, ptr %8, align 8, !tbaa !10
  %62 = getelementptr inbounds nuw %struct.yyguts_t, ptr %61, i32 0, i32 5
  %63 = load ptr, ptr %62, align 8, !tbaa !25
  %64 = load ptr, ptr %8, align 8, !tbaa !10
  %65 = getelementptr inbounds nuw %struct.yyguts_t, ptr %64, i32 0, i32 3
  %66 = load i64, ptr %65, align 8, !tbaa !26
  %67 = getelementptr inbounds nuw ptr, ptr %63, i64 %66
  %68 = load ptr, ptr %67, align 8, !tbaa !27
  %69 = getelementptr inbounds nuw %struct.yy_buffer_state, ptr %68, i32 0, i32 1
  %70 = load ptr, ptr %69, align 8, !tbaa !52
  %71 = load i32, ptr %9, align 4, !tbaa !33
  %72 = sext i32 %71 to i64
  %73 = getelementptr inbounds i8, ptr %70, i64 %72
  store ptr %73, ptr %11, align 8, !tbaa !30
  br label %74

74:                                               ; preds = %87, %33
  %75 = load ptr, ptr %11, align 8, !tbaa !30
  %76 = load ptr, ptr %8, align 8, !tbaa !10
  %77 = getelementptr inbounds nuw %struct.yyguts_t, ptr %76, i32 0, i32 5
  %78 = load ptr, ptr %77, align 8, !tbaa !25
  %79 = load ptr, ptr %8, align 8, !tbaa !10
  %80 = getelementptr inbounds nuw %struct.yyguts_t, ptr %79, i32 0, i32 3
  %81 = load i64, ptr %80, align 8, !tbaa !26
  %82 = getelementptr inbounds nuw ptr, ptr %78, i64 %81
  %83 = load ptr, ptr %82, align 8, !tbaa !27
  %84 = getelementptr inbounds nuw %struct.yy_buffer_state, ptr %83, i32 0, i32 1
  %85 = load ptr, ptr %84, align 8, !tbaa !52
  %86 = icmp ugt ptr %75, %85
  br i1 %86, label %87, label %93

87:                                               ; preds = %74
  %88 = load ptr, ptr %11, align 8, !tbaa !30
  %89 = getelementptr inbounds i8, ptr %88, i32 -1
  store ptr %89, ptr %11, align 8, !tbaa !30
  %90 = load i8, ptr %89, align 1, !tbaa !32
  %91 = load ptr, ptr %10, align 8, !tbaa !30
  %92 = getelementptr inbounds i8, ptr %91, i32 -1
  store ptr %92, ptr %10, align 8, !tbaa !30
  store i8 %90, ptr %92, align 1, !tbaa !32
  br label %74, !llvm.loop !60

93:                                               ; preds = %74
  %94 = load ptr, ptr %10, align 8, !tbaa !30
  %95 = load ptr, ptr %11, align 8, !tbaa !30
  %96 = ptrtoint ptr %94 to i64
  %97 = ptrtoint ptr %95 to i64
  %98 = sub i64 %96, %97
  %99 = trunc i64 %98 to i32
  %100 = load ptr, ptr %7, align 8, !tbaa !30
  %101 = sext i32 %99 to i64
  %102 = getelementptr inbounds i8, ptr %100, i64 %101
  store ptr %102, ptr %7, align 8, !tbaa !30
  %103 = load ptr, ptr %10, align 8, !tbaa !30
  %104 = load ptr, ptr %11, align 8, !tbaa !30
  %105 = ptrtoint ptr %103 to i64
  %106 = ptrtoint ptr %104 to i64
  %107 = sub i64 %105, %106
  %108 = trunc i64 %107 to i32
  %109 = load ptr, ptr %5, align 8, !tbaa !30
  %110 = sext i32 %108 to i64
  %111 = getelementptr inbounds i8, ptr %109, i64 %110
  store ptr %111, ptr %5, align 8, !tbaa !30
  %112 = load ptr, ptr %8, align 8, !tbaa !10
  %113 = getelementptr inbounds nuw %struct.yyguts_t, ptr %112, i32 0, i32 5
  %114 = load ptr, ptr %113, align 8, !tbaa !25
  %115 = load ptr, ptr %8, align 8, !tbaa !10
  %116 = getelementptr inbounds nuw %struct.yyguts_t, ptr %115, i32 0, i32 3
  %117 = load i64, ptr %116, align 8, !tbaa !26
  %118 = getelementptr inbounds nuw ptr, ptr %114, i64 %117
  %119 = load ptr, ptr %118, align 8, !tbaa !27
  %120 = getelementptr inbounds nuw %struct.yy_buffer_state, ptr %119, i32 0, i32 3
  %121 = load i32, ptr %120, align 8, !tbaa !57
  %122 = load ptr, ptr %8, align 8, !tbaa !10
  %123 = getelementptr inbounds nuw %struct.yyguts_t, ptr %122, i32 0, i32 7
  store i32 %121, ptr %123, align 4, !tbaa !50
  %124 = load ptr, ptr %8, align 8, !tbaa !10
  %125 = getelementptr inbounds nuw %struct.yyguts_t, ptr %124, i32 0, i32 5
  %126 = load ptr, ptr %125, align 8, !tbaa !25
  %127 = load ptr, ptr %8, align 8, !tbaa !10
  %128 = getelementptr inbounds nuw %struct.yyguts_t, ptr %127, i32 0, i32 3
  %129 = load i64, ptr %128, align 8, !tbaa !26
  %130 = getelementptr inbounds nuw ptr, ptr %126, i64 %129
  %131 = load ptr, ptr %130, align 8, !tbaa !27
  %132 = getelementptr inbounds nuw %struct.yy_buffer_state, ptr %131, i32 0, i32 4
  store i32 %121, ptr %132, align 4, !tbaa !49
  %133 = load ptr, ptr %7, align 8, !tbaa !30
  %134 = load ptr, ptr %8, align 8, !tbaa !10
  %135 = getelementptr inbounds nuw %struct.yyguts_t, ptr %134, i32 0, i32 5
  %136 = load ptr, ptr %135, align 8, !tbaa !25
  %137 = load ptr, ptr %8, align 8, !tbaa !10
  %138 = getelementptr inbounds nuw %struct.yyguts_t, ptr %137, i32 0, i32 3
  %139 = load i64, ptr %138, align 8, !tbaa !26
  %140 = getelementptr inbounds nuw ptr, ptr %136, i64 %139
  %141 = load ptr, ptr %140, align 8, !tbaa !27
  %142 = getelementptr inbounds nuw %struct.yy_buffer_state, ptr %141, i32 0, i32 1
  %143 = load ptr, ptr %142, align 8, !tbaa !52
  %144 = getelementptr inbounds i8, ptr %143, i64 2
  %145 = icmp ult ptr %133, %144
  br i1 %145, label %146, label %148

146:                                              ; preds = %93
  %147 = load ptr, ptr %6, align 8, !tbaa !9
  call void @_ZL14yy_fatal_errorPKcPv(ptr noundef @.str.10, ptr noundef %147) #14
  unreachable

148:                                              ; preds = %93
  call void @llvm.lifetime.end.p0(i64 8, ptr %11) #12
  call void @llvm.lifetime.end.p0(i64 8, ptr %10) #12
  call void @llvm.lifetime.end.p0(i64 4, ptr %9) #12
  br label %149

149:                                              ; preds = %148, %3
  %150 = load i32, ptr %4, align 4, !tbaa !33
  %151 = trunc i32 %150 to i8
  %152 = load ptr, ptr %7, align 8, !tbaa !30
  %153 = getelementptr inbounds i8, ptr %152, i32 -1
  store ptr %153, ptr %7, align 8, !tbaa !30
  store i8 %151, ptr %153, align 1, !tbaa !32
  %154 = load ptr, ptr %5, align 8, !tbaa !30
  %155 = load ptr, ptr %8, align 8, !tbaa !10
  %156 = getelementptr inbounds nuw %struct.yyguts_t, ptr %155, i32 0, i32 20
  store ptr %154, ptr %156, align 8, !tbaa !43
  %157 = load ptr, ptr %7, align 8, !tbaa !30
  %158 = load i8, ptr %157, align 1, !tbaa !32
  %159 = load ptr, ptr %8, align 8, !tbaa !10
  %160 = getelementptr inbounds nuw %struct.yyguts_t, ptr %159, i32 0, i32 6
  store i8 %158, ptr %160, align 8, !tbaa !31
  %161 = load ptr, ptr %7, align 8, !tbaa !30
  %162 = load ptr, ptr %8, align 8, !tbaa !10
  %163 = getelementptr inbounds nuw %struct.yyguts_t, ptr %162, i32 0, i32 9
  store ptr %161, ptr %163, align 8, !tbaa !29
  call void @llvm.lifetime.end.p0(i64 8, ptr %8) #12
  call void @llvm.lifetime.end.p0(i64 8, ptr %7) #12
  ret void
}