; Function Attrs: mustprogress nofree nounwind uwtable
define internal fastcc void @_ZL7yyunputiPcPv(i32 noundef range(i32 -128, 128) %0, ptr noundef %1, ptr noundef captures(none) %2) unnamed_addr #4 {
  %4 = getelementptr inbounds nuw i8, ptr %2, i64 64
  %5 = load ptr, ptr %4, align 8, !tbaa !32
  %6 = getelementptr inbounds nuw i8, ptr %2, i64 48
  %7 = load i8, ptr %6, align 8, !tbaa !36
  store i8 %7, ptr %5, align 1, !tbaa !35
  %8 = getelementptr inbounds nuw i8, ptr %2, i64 40
  %9 = load ptr, ptr %8, align 8, !tbaa !20
  %10 = getelementptr inbounds nuw i8, ptr %2, i64 24
  %11 = load i64, ptr %10, align 8, !tbaa !21
  %12 = getelementptr inbounds nuw ptr, ptr %9, i64 %11
  %13 = load ptr, ptr %12, align 8, !tbaa !22
  %14 = getelementptr inbounds nuw i8, ptr %13, i64 8
  %15 = load ptr, ptr %14, align 8, !tbaa !27
  %16 = getelementptr inbounds nuw i8, ptr %15, i64 2
  %17 = icmp ult ptr %5, %16
  br i1 %17, label %18, label %52

18:                                               ; preds = %3
  %19 = getelementptr inbounds nuw i8, ptr %2, i64 52
  %20 = load i32, ptr %19, align 4, !tbaa !30
  %21 = getelementptr inbounds nuw i8, ptr %13, i64 24
  %22 = load i32, ptr %21, align 8, !tbaa !25
  %23 = sext i32 %22 to i64
  %24 = getelementptr i8, ptr %15, i64 %23
  %25 = getelementptr i8, ptr %24, i64 2
  %26 = sext i32 %20 to i64
  %27 = getelementptr i8, ptr %15, i64 %26
  %28 = getelementptr i8, ptr %27, i64 2
  %29 = icmp ugt ptr %28, %15
  br i1 %29, label %.lr.ph, label %._crit_edge

.lr.ph:                                           ; preds = %18, %.lr.ph
  %.049 = phi ptr [ %30, %.lr.ph ], [ %28, %18 ]
  %.04248 = phi ptr [ %32, %.lr.ph ], [ %25, %18 ]
  %30 = getelementptr inbounds i8, ptr %.049, i64 -1
  %31 = load i8, ptr %30, align 1, !tbaa !35
  %32 = getelementptr inbounds i8, ptr %.04248, i64 -1
  store i8 %31, ptr %32, align 1, !tbaa !35
  %33 = load ptr, ptr %8, align 8, !tbaa !20
  %34 = load i64, ptr %10, align 8, !tbaa !21
  %35 = getelementptr inbounds nuw ptr, ptr %33, i64 %34
  %36 = load ptr, ptr %35, align 8, !tbaa !22
  %37 = getelementptr inbounds nuw i8, ptr %36, i64 8
  %38 = load ptr, ptr %37, align 8, !tbaa !27
  %39 = icmp ugt ptr %30, %38
  br i1 %39, label %.lr.ph, label %._crit_edge.loopexit, !llvm.loop !49

._crit_edge.loopexit:                             ; preds = %.lr.ph
  %.phi.trans.insert = getelementptr inbounds nuw i8, ptr %36, i64 24
  %.pre = load i32, ptr %.phi.trans.insert, align 8, !tbaa !25
  br label %._crit_edge

._crit_edge:                                      ; preds = %._crit_edge.loopexit, %18
  %40 = phi i32 [ %22, %18 ], [ %.pre, %._crit_edge.loopexit ]
  %.042.lcssa = phi ptr [ %25, %18 ], [ %32, %._crit_edge.loopexit ]
  %.0.lcssa = phi ptr [ %28, %18 ], [ %30, %._crit_edge.loopexit ]
  %.lcssa47 = phi ptr [ %13, %18 ], [ %36, %._crit_edge.loopexit ]
  %.lcssa = phi ptr [ %15, %18 ], [ %38, %._crit_edge.loopexit ]
  %41 = ptrtoint ptr %.042.lcssa to i64
  %42 = ptrtoint ptr %.0.lcssa to i64
  %43 = sub i64 %41, %42
  %sext = shl i64 %43, 32
  %44 = ashr exact i64 %sext, 32
  %45 = getelementptr inbounds i8, ptr %5, i64 %44
  store i32 %40, ptr %19, align 4, !tbaa !30
  %46 = getelementptr inbounds nuw i8, ptr %.lcssa47, i64 28
  store i32 %40, ptr %46, align 4, !tbaa !29
  %47 = getelementptr inbounds nuw i8, ptr %.lcssa, i64 2
  %48 = icmp ult ptr %45, %47
  br i1 %48, label %49, label %50

49:                                               ; preds = %._crit_edge
  tail call fastcc void @_ZL14yy_fatal_errorPKcPv(ptr noundef nonnull @.str.10) #27
  unreachable

50:                                               ; preds = %._crit_edge
  %51 = getelementptr inbounds i8, ptr %1, i64 %44
  br label %52

52:                                               ; preds = %50, %3
  %.044 = phi ptr [ %45, %50 ], [ %5, %3 ]
  %.043 = phi ptr [ %51, %50 ], [ %1, %3 ]
  %53 = trunc nsw i32 %0 to i8
  %54 = getelementptr inbounds i8, ptr %.044, i64 -1
  store i8 %53, ptr %54, align 1, !tbaa !35
  %55 = getelementptr inbounds nuw i8, ptr %2, i64 128
  store ptr %.043, ptr %55, align 8, !tbaa !33
  %56 = load i8, ptr %54, align 1, !tbaa !35
  store i8 %56, ptr %6, align 8, !tbaa !36
  store ptr %54, ptr %4, align 8, !tbaa !32
  ret void
}